target datalayout = "e-m:e-p270:32:32-p271:32:32-p272:64:64-i64:64-i128:128-f80:128-n8:16:32:64-S128"
target triple = "x86_64-pc-linux-gnu"

%union.pthread_mutex_t = type { %struct.__pthread_mutex_s }
%struct.__pthread_mutex_s = type { i32, i32, i32, i32, i32, i16, i16, %struct.__pthread_internal_list }
%struct.__pthread_internal_list = type { ptr, ptr }
%struct.pmix_tma = type { ptr, ptr, ptr, ptr, ptr, ptr, ptr, ptr }
%struct.pmix_pointer_array_t = type { %struct.pmix_object_t, i32, i32, i32, i32, i32, ptr, ptr }
%struct.pmix_object_t = type { %union.pthread_mutex_t, ptr, i32, %struct.pmix_tma }
%struct.pmix_mca_base_var_t = type { %struct.pmix_object_t, i32, i32, i32, ptr, ptr, ptr, ptr, %struct.pmix_value_array_t, i32, i32, i32, ptr, ptr, ptr, i32, ptr, ptr }
%struct.pmix_value_array_t = type { %struct.pmix_object_t, ptr, i64, i64, i64 }

@pmix_mca_base_var_initialized = global i8 0, align 1
@pmix_mca_base_vars = internal global %struct.pmix_pointer_array_t zeroinitializer, align 8

; Function Attrs: inlinehint nounwind uwtable
define internal ptr @pmix_pointer_array_get_item(ptr noundef %0, i32 noundef %1) #6 {
  %3 = alloca ptr, align 8
  %4 = alloca ptr, align 8
  %5 = alloca i32, align 4
  %6 = alloca ptr, align 8
  %7 = alloca i32, align 4
  store ptr %0, ptr %4, align 8, !tbaa !90
  store i32 %1, ptr %5, align 4, !tbaa !18
  call void @llvm.lifetime.start.p0(i64 8, ptr %6) #15
  %8 = load i32, ptr %5, align 4, !tbaa !18
  %9 = icmp sgt i32 0, %8
  br i1 %9, label %16, label %10

10:                                               ; preds = %2
  %11 = load ptr, ptr %4, align 8, !tbaa !90
  %12 = getelementptr inbounds nuw %struct.pmix_pointer_array_t, ptr %11, i32 0, i32 3
  %13 = load i32, ptr %12, align 8, !tbaa !92
  %14 = load i32, ptr %5, align 4, !tbaa !18
  %15 = icmp sle i32 %13, %14
  br label %16

16:                                               ; preds = %10, %2
  %17 = phi i1 [ true, %2 ], [ %15, %10 ]
  %18 = xor i1 %17, true
  %19 = xor i1 %18, true
  %20 = zext i1 %19 to i32
  %21 = sext i32 %20 to i64
  %22 = call i64 @llvm.expect.i64(i64 %21, i64 0)
  %23 = icmp ne i64 %22, 0
  br i1 %23, label %24, label %25

24:                                               ; preds = %16
  store ptr null, ptr %3, align 8
  store i32 1, ptr %7, align 4
  br label %34

25:                                               ; preds = %16
  %26 = load ptr, ptr %4, align 8, !tbaa !90
  %27 = getelementptr inbounds nuw %struct.pmix_pointer_array_t, ptr %26, i32 0, i32 7
  %28 = load ptr, ptr %27, align 8, !tbaa !95
  %29 = load i32, ptr %5, align 4, !tbaa !18
  %30 = sext i32 %29 to i64
  %31 = getelementptr inbounds ptr, ptr %28, i64 %30
  %32 = load ptr, ptr %31, align 8, !tbaa !65
  store ptr %32, ptr %6, align 8, !tbaa !65
  %33 = load ptr, ptr %6, align 8, !tbaa !65
  store ptr %33, ptr %3, align 8
  store i32 1, ptr %7, align 4
  br label %34

34:                                               ; preds = %25, %24
  call void @llvm.lifetime.end.p0(i64 8, ptr %6) #15
  %35 = load ptr, ptr %3, align 8
  ret ptr %35
}

; Function Attrs: nounwind uwtable
define internal i32 @var_get(i32 noundef %0, ptr noundef %1, i1 noundef zeroext %2) #0 {
  %4 = alloca i32, align 4
  %5 = alloca i32, align 4
  %6 = alloca ptr, align 8
  %7 = alloca i8, align 1
  %8 = alloca ptr, align 8
  %9 = alloca i32, align 4
  store i32 %0, ptr %5, align 4, !tbaa !18
  store ptr %1, ptr %6, align 8, !tbaa !76
  %10 = zext i1 %2 to i8
  store i8 %10, ptr %7, align 1, !tbaa !54
  call void @llvm.lifetime.start.p0(i64 8, ptr %8) #15
  %11 = load ptr, ptr %6, align 8, !tbaa !76
  %12 = icmp ne ptr %11, null
  br i1 %12, label %13, label %15

13:                                               ; preds = %3
  %14 = load ptr, ptr %6, align 8, !tbaa !76
  store ptr null, ptr %14, align 8, !tbaa !3
  br label %15

15:                                               ; preds = %13, %3
  %16 = load i8, ptr @pmix_mca_base_var_initialized, align 1, !tbaa !54, !range !30, !noundef !31
  %17 = trunc i8 %16 to i1
  br i1 %17, label %19, label %18

18:                                               ; preds = %15
  store i32 -1, ptr %4, align 4
  store i32 1, ptr %9, align 4
  br label %52

19:                                               ; preds = %15
  %20 = load i32, ptr %5, align 4, !tbaa !18
  %21 = icmp slt i32 %20, 0
  br i1 %21, label %22, label %23

22:                                               ; preds = %19
  store i32 -27, ptr %4, align 4
  store i32 1, ptr %9, align 4
  br label %52

23:                                               ; preds = %19
  %24 = load i32, ptr %5, align 4, !tbaa !18
  %25 = call ptr @pmix_pointer_array_get_item(ptr noundef @pmix_mca_base_vars, i32 noundef %24)
  store ptr %25, ptr %8, align 8, !tbaa !3
  %26 = load ptr, ptr %8, align 8, !tbaa !3
  %27 = icmp eq ptr null, %26
  br i1 %27, label %28, label %29

28:                                               ; preds = %23
  store i32 -27, ptr %4, align 4
  store i32 1, ptr %9, align 4
  br label %52

29:                                               ; preds = %23
  %30 = load ptr, ptr %8, align 8, !tbaa !3
  %31 = getelementptr inbounds %struct.pmix_mca_base_var_t, ptr %30, i64 0
  %32 = getelementptr inbounds nuw %struct.pmix_mca_base_var_t, ptr %31, i32 0, i32 9
  %33 = load i32, ptr %32, align 8, !tbaa !71
  %34 = and i32 %33, 131072
  %35 = icmp ne i32 %34, 0
  br i1 %35, label %36, label %45

36:                                               ; preds = %29
  %37 = load i8, ptr %7, align 1, !tbaa !54, !range !30, !noundef !31
  %38 = trunc i8 %37 to i1
  br i1 %38, label %39, label %45

39:                                               ; preds = %36
  %40 = load ptr, ptr %8, align 8, !tbaa !3
  %41 = getelementptr inbounds nuw %struct.pmix_mca_base_var_t, ptr %40, i32 0, i32 11
  %42 = load i32, ptr %41, align 8, !tbaa !78
  %43 = load ptr, ptr %6, align 8, !tbaa !76
  %44 = call i32 @var_get(i32 noundef %42, ptr noundef %43, i1 noundef zeroext false)
  store i32 %44, ptr %4, align 4
  store i32 1, ptr %9, align 4
  br label %52

45:                                               ; preds = %36, %29
  %46 = load ptr, ptr %6, align 8, !tbaa !76
  %47 = icmp ne ptr %46, null
  br i1 %47, label %48, label %51

48:                                               ; preds = %45
  %49 = load ptr, ptr %8, align 8, !tbaa !3
  %50 = load ptr, ptr %6, align 8, !tbaa !76
  store ptr %49, ptr %50, align 8, !tbaa !3
  br label %51

51:                                               ; preds = %48, %45
  store i32 0, ptr %4, align 4
  store i32 1, ptr %9, align 4
  br label %52

52:                                               ; preds = %51, %39, %28, %22, %18
  call void @llvm.lifetime.end.p0(i64 8, ptr %8) #15
  %53 = load i32, ptr %4, align 4
  ret i32 %53
}

; Function Attrs: nounwind uwtable
define internal i32 @var_find_by_name(ptr noundef %0, ptr noundef %1, i1 noundef zeroext %2) #0 {
  %4 = alloca i32, align 4
  %5 = alloca ptr, align 8
  %6 = alloca ptr, align 8
  %7 = alloca i8, align 1
  %8 = alloca ptr, align 8
  %9 = alloca ptr, align 8
  %10 = alloca i32, align 4
  %11 = alloca i32, align 4
  store ptr %0, ptr %5, align 8, !tbaa !47
  store ptr %1, ptr %6, align 8, !tbaa !85
  %12 = zext i1 %2 to i8
  store i8 %12, ptr %7, align 1, !tbaa !54
  call void @llvm.lifetime.start.p0(i64 8, ptr %8) #15
  store ptr null, ptr %8, align 8, !tbaa !3
  call void @llvm.lifetime.start.p0(i64 8, ptr %9) #15
  call void @llvm.lifetime.start.p0(i64 4, ptr %10) #15
  %13 = load ptr, ptr %5, align 8, !tbaa !47
  %14 = load ptr, ptr %5, align 8, !tbaa !47
  %15 = call i64 @strlen(ptr noundef %14) #16
  %16 = call i32 @pmix_hash_table_get_value_ptr(ptr noundef @pmix_mca_base_var_index_hash, ptr noundef %13, i64 noundef %15, ptr noundef %9)
  store i32 %16, ptr %10, align 4, !tbaa !18
  %17 = load i32, ptr %10, align 4, !tbaa !18
  %18 = icmp ne i32 0, %17
  br i1 %18, label %19, label %21

19:                                               ; preds = %3
  %20 = load i32, ptr %10, align 4, !tbaa !18
  store i32 %20, ptr %4, align 4
  store i32 1, ptr %11, align 4
  br label %44

21:                                               ; preds = %3
  %22 = load ptr, ptr %9, align 8, !tbaa !65
  %23 = ptrtoint ptr %22 to i64
  %24 = trunc i64 %23 to i32
  %25 = call i32 @var_get(i32 noundef %24, ptr noundef %8, i1 noundef zeroext false)
  %26 = load i8, ptr %7, align 1, !tbaa !54, !range !30, !noundef !31
  %27 = trunc i8 %26 to i1
  br i1 %27, label %38, label %28

28:                                               ; preds = %21
  %29 = load ptr, ptr %8, align 8, !tbaa !3
  %30 = icmp ne ptr %29, null
  br i1 %30, label %31, label %43

31:                                               ; preds = %28
  %32 = load ptr, ptr %8, align 8, !tbaa !3
  %33 = getelementptr inbounds %struct.pmix_mca_base_var_t, ptr %32, i64 0
  %34 = getelementptr inbounds nuw %struct.pmix_mca_base_var_t, ptr %33, i32 0, i32 9
  %35 = load i32, ptr %34, align 8, !tbaa !71
  %36 = and i32 %35, 65536
  %37 = icmp ne i32 %36, 0
  br i1 %37, label %38, label %43

38:                                               ; preds = %31, %21
  %39 = load ptr, ptr %9, align 8, !tbaa !65
  %40 = ptrtoint ptr %39 to i64
  %41 = trunc i64 %40 to i32
  %42 = load ptr, ptr %6, align 8, !tbaa !85
  store i32 %41, ptr %42, align 4, !tbaa !18
  store i32 0, ptr %4, align 4
  store i32 1, ptr %11, align 4
  br label %44

43:                                               ; preds = %31, %28
  store i32 -46, ptr %4, align 4
  store i32 1, ptr %11, align 4
  br label %44

44:                                               ; preds = %43, %38, %19
  call void @llvm.lifetime.end.p0(i64 4, ptr %10) #15
  call void @llvm.lifetime.end.p0(i64 8, ptr %9) #15
  call void @llvm.lifetime.end.p0(i64 8, ptr %8) #15
  %45 = load i32, ptr %4, align 4
  ret i32 %45
}

; Function Attrs: nounwind uwtable
define i32 @pmix_mca_base_var_find_by_name(ptr noundef %0, ptr noundef %1) #0 {
  %3 = alloca ptr, align 8
  %4 = alloca ptr, align 8
  store ptr %0, ptr %3, align 8, !tbaa !47
  store ptr %1, ptr %4, align 8, !tbaa !85
  %5 = load ptr, ptr %3, align 8, !tbaa !47
  %6 = load ptr, ptr %4, align 8, !tbaa !85
  %7 = call i32 @var_find_by_name(ptr noundef %5, ptr noundef %6, i1 noundef zeroext false)
  ret i32 %7
}