; Function Attrs: nounwind uwtable
define i32 @pmix_mca_base_var_find_by_name(ptr noundef %0, ptr noundef writeonly captures(none) %1) local_unnamed_addr #0 {
  %3 = alloca ptr, align 8
  call void @llvm.lifetime.start.p0(i64 8, ptr nonnull %3) #25
  %4 = tail call i64 @strlen(ptr noundef nonnull dereferenceable(1) %0) #30
  %5 = call i32 @pmix_hash_table_get_value_ptr(ptr noundef nonnull @pmix_mca_base_var_index_hash, ptr noundef nonnull %0, i64 noundef %4, ptr noundef nonnull %3) #25
  %.not.i = icmp eq i32 %5, 0
  br i1 %.not.i, label %6, label %var_find_by_name.exit

6:                                                ; preds = %2
  %7 = load ptr, ptr %3, align 8, !tbaa !22
  %8 = ptrtoint ptr %7 to i64
  %9 = trunc i64 %8 to i32
  %10 = load i8, ptr @pmix_mca_base_var_initialized, align 1, !tbaa !54, !range !36, !noundef !37
  %11 = trunc nuw i8 %10 to i1
  br i1 %11, label %12, label %var_find_by_name.exit

12:                                               ; preds = %6
  %13 = icmp slt i32 %9, 0
  %14 = load i32, ptr getelementptr inbounds nuw (i8, ptr @pmix_mca_base_vars, i64 128), align 8
  %15 = icmp sle i32 %14, %9
  %or.cond.i.i = select i1 %13, i1 true, i1 %15
  br i1 %or.cond.i.i, label %var_find_by_name.exit, label %var_get.exit.i, !prof !63

var_get.exit.i:                                   ; preds = %12
  %16 = load ptr, ptr getelementptr inbounds nuw (i8, ptr @pmix_mca_base_vars, i64 152), align 8, !tbaa !58
  %17 = and i64 %8, 2147483647
  %18 = getelementptr inbounds nuw ptr, ptr %16, i64 %17
  %19 = load ptr, ptr %18, align 8, !tbaa !22
  %.not8.i = icmp eq ptr %19, null
  br i1 %.not8.i, label %var_find_by_name.exit, label %20

20:                                               ; preds = %var_get.exit.i
  %21 = getelementptr inbounds nuw i8, ptr %19, i64 320
  %22 = load i32, ptr %21, align 8, !tbaa !61
  %23 = and i32 %22, 65536
  %.not9.i = icmp eq i32 %23, 0
  br i1 %.not9.i, label %var_find_by_name.exit, label %24

24:                                               ; preds = %20
  store i32 %9, ptr %1, align 4, !tbaa !16
  br label %var_find_by_name.exit

var_find_by_name.exit:                            ; preds = %6, %12, %2, %var_get.exit.i, %20, %24
  %.0.i = phi i32 [ 0, %24 ], [ %5, %2 ], [ -46, %20 ], [ -46, %var_get.exit.i ], [ -46, %12 ], [ -46, %6 ]
  call void @llvm.lifetime.end.p0(i64 8, ptr nonnull %3) #25
  ret i32 %.0.i
}